(ibackend.stock
Stock
p0
(dp1
S'history_count'
p2
I4
sS'material'
p3
(dp4
S'A'
p5
(dp6
V\u7269\u6599\u7de8\u78bc
p7
S'001'
p8
sV\u7269\u6599\u540d\u7a31
p9
g5
sV\u6578\u91cf
p10
F995.0
sV\u55ae\u4f4d
p11
S'kg'
p12
sssS'companies'
p13
(dp14
S'aa'
p15
(ibackend.company
Company
p16
(dp17
S'data'
p18
(dp19
S'asf'
p20
I6
ssS'name'
p21
g15
sS'history'
p22
(lp23
(dp24
S'Amount'
p25
I3
sS'TotalPrice'
p26
F0.0
sS'UnitPrice'
p27
F0.0
sS'Name'
p28
g20
sS'Time'
p29
cdatetime
date
p30
(S'\x07\xe3\x02\r'
p31
tp32
Rp33
sa(dp34
S'Amount'
p35
I3
sS'TotalPrice'
p36
F15.0
sS'UnitPrice'
p37
F5.0
sS'Name'
p38
S'asf'
p39
sS'Time'
p40
g30
(S'\x07\xe3\x02\r'
p41
tp42
Rp43
sasbssS'historymap'
p44
(dp45
S'1'
p46
I0
sS'3'
p47
I2
sS'2'
p48
I1
sS'4'
p49
I3
ssg18
(dp50
S'asf'
p51
(dp52
V\u6d88\u8017
p53
(dp54
g5
F0.5
ssV\u5716\u865f
p55
S'908'
p56
sV\u540d\u7a31
p57
g51
sV\u6578\u91cf
p58
I4
sV\u55ae\u4f4d
p59
S'kg'
p60
sssg22
(lp61
(dp62
V\u7e3d\u50f9
p63
S''
p64
sV\u7522\u54c1\u6578\u91cf
p65
I1000
sS'ID'
p66
I1
sV\u6642\u9593
p67
g30
(S'\x07\xe3\x02\n'
p68
tp69
Rp70
sV\u64cd\u4f5c
p71
V\u7269\u6599\u5165\u5eab
p72
sV\u7522\u54c1\u540d\u7a31
p73
g5
sV\u516c\u53f8\u540d\u7a31
p74
g64
sa(dp75
V\u7e3d\u50f9
p76
g64
sV\u7522\u54c1\u6578\u91cf
p77
I10
sg66
I2
sV\u6642\u9593
p78
g30
(S'\x07\xe3\x02\n'
p79
tp80
Rp81
sV\u64cd\u4f5c
p82
V\u5165\u5eab
p83
sV\u7522\u54c1\u540d\u7a31
p84
S'asf'
p85
sV\u516c\u53f8\u540d\u7a31
p86
g64
sa(dp87
V\u7e3d\u50f9
p88
F0.0
sV\u7522\u54c1\u6578\u91cf
p89
I3
sS'ID'
p90
I3
sV\u6642\u9593
p91
g33
sV\u64cd\u4f5c
p92
V\u92b7\u5eab
p93
sV\u7522\u54c1\u540d\u7a31
p94
g20
sV\u516c\u53f8\u540d\u7a31
p95
S'aa'
p96
sa(dp97
V\u7e3d\u50f9
p98
F15.0
sV\u7522\u54c1\u6578\u91cf
p99
I3
sS'ID'
p100
I4
sV\u6642\u9593
p101
g43
sV\u64cd\u4f5c
p102
V\u92b7\u5eab
p103
sV\u7522\u54c1\u540d\u7a31
p104
g39
sV\u516c\u53f8\u540d\u7a31
p105
S'aa'
p106
sasb.